target datalayout = "e-m:e-p270:32:32-p271:32:32-p272:64:64-i64:64-i128:128-f80:128-n8:16:32:64-S128"
target triple = "x86_64-pc-linux-gnu"

%struct.PROV_EC_CTX = type { ptr, ptr, ptr, ptr, i32, i32, ptr, i64, ptr, ptr }

@.str = private unnamed_addr constant [5 x i8] c"HKDF\00", align 1
@.str.1 = private unnamed_addr constant [50 x i8] c"../openssl/providers/implementations/kem/ec_kem.c\00", align 1
@__func__.ossl_ec_match_params = private unnamed_addr constant [21 x i8] c"ossl_ec_match_params\00", align 1

; Function Attrs: nounwind uwtable
define internal ptr @ec_curvename_get0(ptr noundef %0) #0 {
  %2 = alloca ptr, align 8
  %3 = alloca ptr, align 8
  store ptr %0, ptr %2, align 8, !tbaa !3
  call void @llvm.lifetime.start.p0(i64 8, ptr %3) #5
  %4 = load ptr, ptr %2, align 8, !tbaa !3
  %5 = call ptr @EC_KEY_get0_group(ptr noundef %4)
  store ptr %5, ptr %3, align 8, !tbaa !29
  %6 = load ptr, ptr %3, align 8, !tbaa !29
  %7 = call i32 @EC_GROUP_get_curve_name(ptr noundef %6)
  %8 = call ptr @EC_curve_nid2nist(i32 noundef %7)
  call void @llvm.lifetime.end.p0(i64 8, ptr %3) #5
  ret ptr %8
}

; Function Attrs: nounwind uwtable
define internal i32 @sender_authkey_set(ptr noundef %0, ptr noundef %1) #0 {
  %3 = alloca i32, align 4
  %4 = alloca ptr, align 8
  %5 = alloca ptr, align 8
  store ptr %0, ptr %4, align 8, !tbaa !19
  store ptr %1, ptr %5, align 8, !tbaa !3
  %6 = load ptr, ptr %4, align 8, !tbaa !19
  %7 = getelementptr inbounds nuw %struct.PROV_EC_CTX, ptr %6, i32 0, i32 1
  %8 = load ptr, ptr %7, align 8, !tbaa !53
  call void @EC_KEY_free(ptr noundef %8)
  %9 = load ptr, ptr %4, align 8, !tbaa !19
  %10 = getelementptr inbounds nuw %struct.PROV_EC_CTX, ptr %9, i32 0, i32 1
  store ptr null, ptr %10, align 8, !tbaa !53
  %11 = load ptr, ptr %5, align 8, !tbaa !3
  %12 = icmp ne ptr %11, null
  br i1 %12, label %13, label %22

13:                                               ; preds = %2
  %14 = load ptr, ptr %5, align 8, !tbaa !3
  %15 = call i32 @EC_KEY_up_ref(ptr noundef %14)
  %16 = icmp ne i32 %15, 0
  br i1 %16, label %18, label %17

17:                                               ; preds = %13
  store i32 0, ptr %3, align 4
  br label %23

18:                                               ; preds = %13
  %19 = load ptr, ptr %5, align 8, !tbaa !3
  %20 = load ptr, ptr %4, align 8, !tbaa !19
  %21 = getelementptr inbounds nuw %struct.PROV_EC_CTX, ptr %20, i32 0, i32 1
  store ptr %19, ptr %21, align 8, !tbaa !53
  br label %22

22:                                               ; preds = %18, %2
  store i32 1, ptr %3, align 4
  br label %23

23:                                               ; preds = %22, %17
  %24 = load i32, ptr %3, align 4
  ret i32 %24
}

; Function Attrs: nounwind uwtable
define internal i32 @ossl_ec_match_params(ptr noundef %0, ptr noundef %1) #0 {
  %3 = alloca i32, align 4
  %4 = alloca ptr, align 8
  %5 = alloca ptr, align 8
  %6 = alloca i32, align 4
  %7 = alloca ptr, align 8
  %8 = alloca ptr, align 8
  %9 = alloca ptr, align 8
  %10 = alloca i32, align 4
  store ptr %0, ptr %4, align 8, !tbaa !3
  store ptr %1, ptr %5, align 8, !tbaa !3
  call void @llvm.lifetime.start.p0(i64 4, ptr %6) #5
  call void @llvm.lifetime.start.p0(i64 8, ptr %7) #5
  store ptr null, ptr %7, align 8, !tbaa !46
  call void @llvm.lifetime.start.p0(i64 8, ptr %8) #5
  %11 = load ptr, ptr %4, align 8, !tbaa !3
  %12 = call ptr @EC_KEY_get0_group(ptr noundef %11)
  store ptr %12, ptr %8, align 8, !tbaa !29
  call void @llvm.lifetime.start.p0(i64 8, ptr %9) #5
  %13 = load ptr, ptr %5, align 8, !tbaa !3
  %14 = call ptr @EC_KEY_get0_group(ptr noundef %13)
  store ptr %14, ptr %9, align 8, !tbaa !29
  %15 = load ptr, ptr %4, align 8, !tbaa !3
  %16 = call ptr @ossl_ec_key_get_libctx(ptr noundef %15)
  %17 = call ptr @BN_CTX_new_ex(ptr noundef %16)
  store ptr %17, ptr %7, align 8, !tbaa !46
  %18 = load ptr, ptr %7, align 8, !tbaa !46
  %19 = icmp eq ptr %18, null
  br i1 %19, label %20, label %21

20:                                               ; preds = %2
  store i32 0, ptr %3, align 4
  store i32 1, ptr %10, align 4
  br label %42

21:                                               ; preds = %2
  %22 = load ptr, ptr %8, align 8, !tbaa !29
  %23 = icmp ne ptr %22, null
  br i1 %23, label %24, label %33

24:                                               ; preds = %21
  %25 = load ptr, ptr %9, align 8, !tbaa !29
  %26 = icmp ne ptr %25, null
  br i1 %26, label %27, label %33

27:                                               ; preds = %24
  %28 = load ptr, ptr %8, align 8, !tbaa !29
  %29 = load ptr, ptr %9, align 8, !tbaa !29
  %30 = load ptr, ptr %7, align 8, !tbaa !46
  %31 = call i32 @EC_GROUP_cmp(ptr noundef %28, ptr noundef %29, ptr noundef %30)
  %32 = icmp eq i32 %31, 0
  br label %33

33:                                               ; preds = %27, %24, %21
  %34 = phi i1 [ false, %24 ], [ false, %21 ], [ %32, %27 ]
  %35 = zext i1 %34 to i32
  store i32 %35, ptr %6, align 4, !tbaa !14
  %36 = load i32, ptr %6, align 4, !tbaa !14
  %37 = icmp ne i32 %36, 0
  br i1 %37, label %39, label %38

38:                                               ; preds = %33
  call void @ERR_new()
  call void @ERR_set_debug(ptr noundef @.str.1, i32 noundef 229, ptr noundef @__func__.ossl_ec_match_params)
  call void (i32, i32, ptr, ...) @ERR_set_error(i32 noundef 57, i32 noundef 203, ptr noundef null)
  br label %39

39:                                               ; preds = %38, %33
  %40 = load ptr, ptr %7, align 8, !tbaa !46
  call void @BN_CTX_free(ptr noundef %40)
  %41 = load i32, ptr %6, align 4, !tbaa !14
  store i32 %41, ptr %3, align 4
  store i32 1, ptr %10, align 4
  br label %42

42:                                               ; preds = %39, %20
  call void @llvm.lifetime.end.p0(i64 8, ptr %9) #5
  call void @llvm.lifetime.end.p0(i64 8, ptr %8) #5
  call void @llvm.lifetime.end.p0(i64 8, ptr %7) #5
  call void @llvm.lifetime.end.p0(i64 4, ptr %6) #5
  %43 = load i32, ptr %3, align 4
  ret i32 %43
}

; Function Attrs: nounwind uwtable
define internal i32 @recipient_key_set(ptr noundef %0, ptr noundef %1) #0 {
  %3 = alloca i32, align 4
  %4 = alloca ptr, align 8
  %5 = alloca ptr, align 8
  %6 = alloca ptr, align 8
  %7 = alloca i32, align 4
  store ptr %0, ptr %4, align 8, !tbaa !19
  store ptr %1, ptr %5, align 8, !tbaa !3
  %8 = load ptr, ptr %4, align 8, !tbaa !19
  %9 = getelementptr inbounds nuw %struct.PROV_EC_CTX, ptr %8, i32 0, i32 0
  %10 = load ptr, ptr %9, align 8, !tbaa !50
  call void @EC_KEY_free(ptr noundef %10)
  %11 = load ptr, ptr %4, align 8, !tbaa !19
  %12 = getelementptr inbounds nuw %struct.PROV_EC_CTX, ptr %11, i32 0, i32 0
  store ptr null, ptr %12, align 8, !tbaa !50
  %13 = load ptr, ptr %5, align 8, !tbaa !3
  %14 = icmp ne ptr %13, null
  br i1 %14, label %15, label %45

15:                                               ; preds = %2
  call void @llvm.lifetime.start.p0(i64 8, ptr %6) #5
  %16 = load ptr, ptr %5, align 8, !tbaa !3
  %17 = call ptr @ec_curvename_get0(ptr noundef %16)
  store ptr %17, ptr %6, align 8, !tbaa !10
  %18 = load ptr, ptr %6, align 8, !tbaa !10
  %19 = icmp eq ptr %18, null
  br i1 %19, label %20, label %21

20:                                               ; preds = %15
  store i32 -2, ptr %3, align 4
  store i32 1, ptr %7, align 4
  br label %42

21:                                               ; preds = %15
  %22 = load ptr, ptr %6, align 8, !tbaa !10
  %23 = call ptr @ossl_HPKE_KEM_INFO_find_curve(ptr noundef %22)
  %24 = load ptr, ptr %4, align 8, !tbaa !19
  %25 = getelementptr inbounds nuw %struct.PROV_EC_CTX, ptr %24, i32 0, i32 9
  store ptr %23, ptr %25, align 8, !tbaa !51
  %26 = load ptr, ptr %4, align 8, !tbaa !19
  %27 = getelementptr inbounds nuw %struct.PROV_EC_CTX, ptr %26, i32 0, i32 9
  %28 = load ptr, ptr %27, align 8, !tbaa !51
  %29 = icmp eq ptr %28, null
  br i1 %29, label %30, label %31

30:                                               ; preds = %21
  store i32 -2, ptr %3, align 4
  store i32 1, ptr %7, align 4
  br label %42

31:                                               ; preds = %21
  %32 = load ptr, ptr %5, align 8, !tbaa !3
  %33 = call i32 @EC_KEY_up_ref(ptr noundef %32)
  %34 = icmp ne i32 %33, 0
  br i1 %34, label %36, label %35

35:                                               ; preds = %31
  store i32 0, ptr %3, align 4
  store i32 1, ptr %7, align 4
  br label %42

36:                                               ; preds = %31
  %37 = load ptr, ptr %5, align 8, !tbaa !3
  %38 = load ptr, ptr %4, align 8, !tbaa !19
  %39 = getelementptr inbounds nuw %struct.PROV_EC_CTX, ptr %38, i32 0, i32 0
  store ptr %37, ptr %39, align 8, !tbaa !50
  %40 = load ptr, ptr %4, align 8, !tbaa !19
  %41 = getelementptr inbounds nuw %struct.PROV_EC_CTX, ptr %40, i32 0, i32 8
  store ptr @.str, ptr %41, align 8, !tbaa !52
  store i32 0, ptr %7, align 4
  br label %42

42:                                               ; preds = %36, %35, %30, %20
  call void @llvm.lifetime.end.p0(i64 8, ptr %6) #5
  %43 = load i32, ptr %7, align 4
  switch i32 %43, label %48 [
    i32 0, label %44
    i32 1, label %46
  ]

44:                                               ; preds = %42
  br label %45

45:                                               ; preds = %44, %2
  store i32 1, ptr %3, align 4
  br label %46

46:                                               ; preds = %45, %42
  %47 = load i32, ptr %3, align 4
  ret i32 %47

48:                                               ; preds = %42
  unreachable
}

; Function Attrs: nounwind uwtable
define internal i32 @eckem_init(ptr noundef %0, i32 noundef %1, ptr noundef %2, ptr noundef %3, ptr noundef %4) #0 {
  %6 = alloca i32, align 4
  %7 = alloca ptr, align 8
  %8 = alloca i32, align 4
  %9 = alloca ptr, align 8
  %10 = alloca ptr, align 8
  %11 = alloca ptr, align 8
  %12 = alloca i32, align 4
  %13 = alloca ptr, align 8
  %14 = alloca ptr, align 8
  %15 = alloca ptr, align 8
  %16 = alloca i32, align 4
  store ptr %0, ptr %7, align 8, !tbaa !19
  store i32 %1, ptr %8, align 4, !tbaa !14
  store ptr %2, ptr %9, align 8, !tbaa !19
  store ptr %3, ptr %10, align 8, !tbaa !19
  store ptr %4, ptr %11, align 8, !tbaa !34
  call void @llvm.lifetime.start.p0(i64 4, ptr %12) #5
  call void @llvm.lifetime.start.p0(i64 8, ptr %13) #5
  %17 = load ptr, ptr %7, align 8, !tbaa !19
  store ptr %17, ptr %13, align 8, !tbaa !19
  call void @llvm.lifetime.start.p0(i64 8, ptr %14) #5
  %18 = load ptr, ptr %9, align 8, !tbaa !19
  store ptr %18, ptr %14, align 8, !tbaa !3
  call void @llvm.lifetime.start.p0(i64 8, ptr %15) #5
  %19 = load ptr, ptr %10, align 8, !tbaa !19
  store ptr %19, ptr %15, align 8, !tbaa !3
  %20 = call i32 @ossl_prov_is_running()
  %21 = icmp ne i32 %20, 0
  br i1 %21, label %23, label %22

22:                                               ; preds = %5
  store i32 0, ptr %6, align 4
  store i32 1, ptr %16, align 4
  br label %68

23:                                               ; preds = %5
  %24 = load ptr, ptr %14, align 8, !tbaa !3
  %25 = load i32, ptr %8, align 4, !tbaa !14
  %26 = icmp eq i32 %25, 8192
  %27 = zext i1 %26 to i32
  %28 = call i32 @eckey_check(ptr noundef %24, i32 noundef %27)
  %29 = icmp ne i32 %28, 0
  br i1 %29, label %31, label %30

30:                                               ; preds = %23
  store i32 0, ptr %6, align 4
  store i32 1, ptr %16, align 4
  br label %68

31:                                               ; preds = %23
  %32 = load ptr, ptr %13, align 8, !tbaa !19
  %33 = load ptr, ptr %14, align 8, !tbaa !3
  %34 = call i32 @recipient_key_set(ptr noundef %32, ptr noundef %33)
  store i32 %34, ptr %12, align 4, !tbaa !14
  %35 = load i32, ptr %12, align 4, !tbaa !14
  %36 = icmp sle i32 %35, 0
  br i1 %36, label %37, label %39

37:                                               ; preds = %31
  %38 = load i32, ptr %12, align 4, !tbaa !14
  store i32 %38, ptr %6, align 4
  store i32 1, ptr %16, align 4
  br label %68

39:                                               ; preds = %31
  %40 = load ptr, ptr %15, align 8, !tbaa !3
  %41 = icmp ne ptr %40, null
  br i1 %41, label %42, label %61

42:                                               ; preds = %39
  %43 = load ptr, ptr %14, align 8, !tbaa !3
  %44 = load ptr, ptr %15, align 8, !tbaa !3
  %45 = call i32 @ossl_ec_match_params(ptr noundef %43, ptr noundef %44)
  %46 = icmp ne i32 %45, 0
  br i1 %46, label %47, label %59

47:                                               ; preds = %42
  %48 = load ptr, ptr %15, align 8, !tbaa !3
  %49 = load i32, ptr %8, align 4, !tbaa !14
  %50 = icmp eq i32 %49, 4096
  %51 = zext i1 %50 to i32
  %52 = call i32 @eckey_check(ptr noundef %48, i32 noundef %51)
  %53 = icmp ne i32 %52, 0
  br i1 %53, label %54, label %59

54:                                               ; preds = %47
  %55 = load ptr, ptr %13, align 8, !tbaa !19
  %56 = load ptr, ptr %15, align 8, !tbaa !3
  %57 = call i32 @sender_authkey_set(ptr noundef %55, ptr noundef %56)
  %58 = icmp ne i32 %57, 0
  br i1 %58, label %60, label %59

59:                                               ; preds = %54, %47, %42
  store i32 0, ptr %6, align 4
  store i32 1, ptr %16, align 4
  br label %68

60:                                               ; preds = %54
  br label %61

61:                                               ; preds = %60, %39
  %62 = load i32, ptr %8, align 4, !tbaa !14
  %63 = load ptr, ptr %13, align 8, !tbaa !19
  %64 = getelementptr inbounds nuw %struct.PROV_EC_CTX, ptr %63, i32 0, i32 5
  store i32 %62, ptr %64, align 4, !tbaa !45
  %65 = load ptr, ptr %7, align 8, !tbaa !19
  %66 = load ptr, ptr %11, align 8, !tbaa !34
  %67 = call i32 @eckem_set_ctx_params(ptr noundef %65, ptr noundef %66)
  store i32 %67, ptr %6, align 4
  store i32 1, ptr %16, align 4
  br label %68

68:                                               ; preds = %61, %59, %37, %30, %22
  call void @llvm.lifetime.end.p0(i64 8, ptr %15) #5
  call void @llvm.lifetime.end.p0(i64 8, ptr %14) #5
  call void @llvm.lifetime.end.p0(i64 8, ptr %13) #5
  call void @llvm.lifetime.end.p0(i64 4, ptr %12) #5
  %69 = load i32, ptr %6, align 4
  ret i32 %69
}