; Function Attrs: nounwind uwtable
define internal fastcc range(i32 -2, 2) i32 @eckem_init(ptr noundef captures(none) %0, i32 noundef range(i32 4096, 8193) %1, ptr noundef %2, ptr noundef %3, ptr noundef %4) unnamed_addr #0 {
  %6 = tail call i32 @ossl_prov_is_running() #5
  %.not = icmp eq i32 %6, 0
  br i1 %.not, label %recipient_key_set.exit.thread, label %7

7:                                                ; preds = %5
  %8 = icmp eq i32 %1, 8192
  %9 = zext i1 %8 to i32
  %10 = tail call fastcc i32 @eckey_check(ptr noundef %2, i32 noundef %9)
  %.not22 = icmp eq i32 %10, 0
  br i1 %.not22, label %recipient_key_set.exit.thread, label %11

11:                                               ; preds = %7
  %12 = load ptr, ptr %0, align 8, !tbaa !30
  tail call void @EC_KEY_free(ptr noundef %12) #5
  store ptr null, ptr %0, align 8, !tbaa !30
  %.not.i = icmp eq ptr %2, null
  br i1 %.not.i, label %recipient_key_set.exit, label %13

13:                                               ; preds = %11
  %14 = tail call ptr @EC_KEY_get0_group(ptr noundef nonnull %2) #5
  %15 = tail call i32 @EC_GROUP_get_curve_name(ptr noundef %14) #5
  %16 = tail call ptr @EC_curve_nid2nist(i32 noundef %15) #5
  %17 = icmp eq ptr %16, null
  br i1 %17, label %recipient_key_set.exit.thread, label %18

18:                                               ; preds = %13
  %19 = tail call ptr @ossl_HPKE_KEM_INFO_find_curve(ptr noundef nonnull %16) #5
  %20 = getelementptr inbounds nuw i8, ptr %0, i64 64
  store ptr %19, ptr %20, align 8, !tbaa !24
  %21 = icmp eq ptr %19, null
  br i1 %21, label %recipient_key_set.exit.thread, label %22

22:                                               ; preds = %18
  %23 = tail call i32 @EC_KEY_up_ref(ptr noundef nonnull %2) #5
  %.not16.i = icmp eq i32 %23, 0
  br i1 %.not16.i, label %recipient_key_set.exit.thread, label %24

24:                                               ; preds = %22
  store ptr %2, ptr %0, align 8, !tbaa !30
  %25 = getelementptr inbounds nuw i8, ptr %0, i64 56
  store ptr @.str, ptr %25, align 8, !tbaa !39
  br label %recipient_key_set.exit

recipient_key_set.exit:                           ; preds = %24, %11
  %.not23 = icmp eq ptr %3, null
  br i1 %.not23, label %46, label %26

26:                                               ; preds = %recipient_key_set.exit
  %27 = tail call ptr @EC_KEY_get0_group(ptr noundef %2) #5
  %28 = tail call ptr @EC_KEY_get0_group(ptr noundef nonnull %3) #5
  %29 = tail call ptr @ossl_ec_key_get_libctx(ptr noundef %2) #5
  %30 = tail call ptr @BN_CTX_new_ex(ptr noundef %29) #5
  %31 = icmp eq ptr %30, null
  br i1 %31, label %recipient_key_set.exit.thread, label %32

32:                                               ; preds = %26
  %33 = icmp ne ptr %27, null
  %34 = icmp ne ptr %28, null
  %or.cond.i = select i1 %33, i1 %34, i1 false
  br i1 %or.cond.i, label %35, label %ossl_ec_match_params.exit.thread32

35:                                               ; preds = %32
  %36 = tail call i32 @EC_GROUP_cmp(ptr noundef nonnull %27, ptr noundef nonnull %28, ptr noundef nonnull %30) #5
  %37 = icmp eq i32 %36, 0
  br i1 %37, label %38, label %ossl_ec_match_params.exit.thread32

ossl_ec_match_params.exit.thread32:               ; preds = %32, %35
  tail call void @ERR_new() #5
  tail call void @ERR_set_debug(ptr noundef nonnull @.str.1, i32 noundef 229, ptr noundef nonnull @__func__.ossl_ec_match_params) #5
  tail call void (i32, i32, ptr, ...) @ERR_set_error(i32 noundef 57, i32 noundef 203, ptr noundef null) #5
  tail call void @BN_CTX_free(ptr noundef nonnull %30) #5
  br label %recipient_key_set.exit.thread

38:                                               ; preds = %35
  tail call void @BN_CTX_free(ptr noundef nonnull %30) #5
  %39 = icmp eq i32 %1, 4096
  %40 = zext i1 %39 to i32
  %41 = tail call fastcc i32 @eckey_check(ptr noundef nonnull %3, i32 noundef %40)
  %.not25 = icmp eq i32 %41, 0
  br i1 %.not25, label %recipient_key_set.exit.thread, label %42

42:                                               ; preds = %38
  %43 = getelementptr inbounds nuw i8, ptr %0, i64 8
  %44 = load ptr, ptr %43, align 8, !tbaa !32
  tail call void @EC_KEY_free(ptr noundef %44) #5
  store ptr null, ptr %43, align 8, !tbaa !32
  %45 = tail call i32 @EC_KEY_up_ref(ptr noundef nonnull %3) #5
  %.not7.i = icmp eq i32 %45, 0
  br i1 %.not7.i, label %recipient_key_set.exit.thread, label %sender_authkey_set.exit

sender_authkey_set.exit:                          ; preds = %42
  store ptr %3, ptr %43, align 8, !tbaa !32
  br label %46

46:                                               ; preds = %sender_authkey_set.exit, %recipient_key_set.exit
  %47 = getelementptr inbounds nuw i8, ptr %0, i64 36
  store i32 %1, ptr %47, align 4, !tbaa !40
  %48 = tail call i32 @eckem_set_ctx_params(ptr noundef nonnull %0, ptr noundef %4)
  br label %recipient_key_set.exit.thread

recipient_key_set.exit.thread:                    ; preds = %42, %26, %13, %18, %22, %ossl_ec_match_params.exit.thread32, %38, %7, %5, %46
  %.0 = phi i32 [ %48, %46 ], [ 0, %5 ], [ 0, %7 ], [ 0, %38 ], [ 0, %ossl_ec_match_params.exit.thread32 ], [ -2, %13 ], [ -2, %18 ], [ 0, %22 ], [ 0, %26 ], [ 0, %42 ]
  ret i32 %.0
}